target datalayout = "e-m:e-p270:32:32-p271:32:32-p272:64:64-i64:64-i128:128-f80:128-n8:16:32:64-S128"
target triple = "x86_64-pc-linux-gnu"

; Function Attrs: nounwind uwtable
define internal i32 @pg_gb18030_verifychar(ptr noundef %0, i32 noundef %1) #1 {
  %3 = alloca ptr, align 8
  %4 = alloca i32, align 4
  %5 = alloca i32, align 4
  store ptr %0, ptr %3, align 8
  store i32 %1, ptr %4, align 4
  call void @llvm.lifetime.start.p0(i64 4, ptr %5) #7
  %6 = load ptr, ptr %3, align 8
  %7 = load i8, ptr %6, align 1
  %8 = zext i8 %7 to i32
  %9 = and i32 %8, 128
  %10 = icmp ne i32 %9, 0
  br i1 %10, label %12, label %11

11:                                               ; preds = %2
  store i32 1, ptr %5, align 4
  br label %107

12:                                               ; preds = %2
  %13 = load i32, ptr %4, align 4
  %14 = icmp sge i32 %13, 4
  br i1 %14, label %15, label %64

15:                                               ; preds = %12
  %16 = load ptr, ptr %3, align 8
  %17 = getelementptr inbounds i8, ptr %16, i64 1
  %18 = load i8, ptr %17, align 1
  %19 = zext i8 %18 to i32
  %20 = icmp sge i32 %19, 48
  br i1 %20, label %21, label %64

21:                                               ; preds = %15
  %22 = load ptr, ptr %3, align 8
  %23 = getelementptr inbounds i8, ptr %22, i64 1
  %24 = load i8, ptr %23, align 1
  %25 = zext i8 %24 to i32
  %26 = icmp sle i32 %25, 57
  br i1 %26, label %27, label %64

27:                                               ; preds = %21
  %28 = load ptr, ptr %3, align 8
  %29 = load i8, ptr %28, align 1
  %30 = zext i8 %29 to i32
  %31 = icmp sge i32 %30, 129
  br i1 %31, label %32, label %62

32:                                               ; preds = %27
  %33 = load ptr, ptr %3, align 8
  %34 = load i8, ptr %33, align 1
  %35 = zext i8 %34 to i32
  %36 = icmp sle i32 %35, 254
  br i1 %36, label %37, label %62

37:                                               ; preds = %32
  %38 = load ptr, ptr %3, align 8
  %39 = getelementptr inbounds i8, ptr %38, i64 2
  %40 = load i8, ptr %39, align 1
  %41 = zext i8 %40 to i32
  %42 = icmp sge i32 %41, 129
  br i1 %42, label %43, label %62

43:                                               ; preds = %37
  %44 = load ptr, ptr %3, align 8
  %45 = getelementptr inbounds i8, ptr %44, i64 2
  %46 = load i8, ptr %45, align 1
  %47 = zext i8 %46 to i32
  %48 = icmp sle i32 %47, 254
  br i1 %48, label %49, label %62

49:                                               ; preds = %43
  %50 = load ptr, ptr %3, align 8
  %51 = getelementptr inbounds i8, ptr %50, i64 3
  %52 = load i8, ptr %51, align 1
  %53 = zext i8 %52 to i32
  %54 = icmp sge i32 %53, 48
  br i1 %54, label %55, label %62

55:                                               ; preds = %49
  %56 = load ptr, ptr %3, align 8
  %57 = getelementptr inbounds i8, ptr %56, i64 3
  %58 = load i8, ptr %57, align 1
  %59 = zext i8 %58 to i32
  %60 = icmp sle i32 %59, 57
  br i1 %60, label %61, label %62

61:                                               ; preds = %55
  store i32 4, ptr %5, align 4
  br label %63

62:                                               ; preds = %55, %49, %43, %37, %32, %27
  store i32 -1, ptr %5, align 4
  br label %63

63:                                               ; preds = %62, %61
  br label %106

64:                                               ; preds = %21, %15, %12
  %65 = load i32, ptr %4, align 4
  %66 = icmp sge i32 %65, 2
  br i1 %66, label %67, label %104

67:                                               ; preds = %64
  %68 = load ptr, ptr %3, align 8
  %69 = load i8, ptr %68, align 1
  %70 = zext i8 %69 to i32
  %71 = icmp sge i32 %70, 129
  br i1 %71, label %72, label %104

72:                                               ; preds = %67
  %73 = load ptr, ptr %3, align 8
  %74 = load i8, ptr %73, align 1
  %75 = zext i8 %74 to i32
  %76 = icmp sle i32 %75, 254
  br i1 %76, label %77, label %104

77:                                               ; preds = %72
  %78 = load ptr, ptr %3, align 8
  %79 = getelementptr inbounds i8, ptr %78, i64 1
  %80 = load i8, ptr %79, align 1
  %81 = zext i8 %80 to i32
  %82 = icmp sge i32 %81, 64
  br i1 %82, label %83, label %89

83:                                               ; preds = %77
  %84 = load ptr, ptr %3, align 8
  %85 = getelementptr inbounds i8, ptr %84, i64 1
  %86 = load i8, ptr %85, align 1
  %87 = zext i8 %86 to i32
  %88 = icmp sle i32 %87, 126
  br i1 %88, label %101, label %89

89:                                               ; preds = %83, %77
  %90 = load ptr, ptr %3, align 8
  %91 = getelementptr inbounds i8, ptr %90, i64 1
  %92 = load i8, ptr %91, align 1
  %93 = zext i8 %92 to i32
  %94 = icmp sge i32 %93, 128
  br i1 %94, label %95, label %102

95:                                               ; preds = %89
  %96 = load ptr, ptr %3, align 8
  %97 = getelementptr inbounds i8, ptr %96, i64 1
  %98 = load i8, ptr %97, align 1
  %99 = zext i8 %98 to i32
  %100 = icmp sle i32 %99, 254
  br i1 %100, label %101, label %102

101:                                              ; preds = %95, %83
  store i32 2, ptr %5, align 4
  br label %103

102:                                              ; preds = %95, %89
  store i32 -1, ptr %5, align 4
  br label %103

103:                                              ; preds = %102, %101
  br label %105

104:                                              ; preds = %72, %67, %64
  store i32 -1, ptr %5, align 4
  br label %105

105:                                              ; preds = %104, %103
  br label %106

106:                                              ; preds = %105, %63
  br label %107

107:                                              ; preds = %106, %11
  %108 = load i32, ptr %5, align 4
  call void @llvm.lifetime.end.p0(i64 4, ptr %5) #7
  ret i32 %108
}