; Function Attrs: mustprogress nofree norecurse nosync nounwind willreturn memory(argmem: read) uwtable
define internal range(i32 -1, 5) i32 @pg_gb18030_verifychar(ptr noundef readonly captures(none) %0, i32 noundef %1) #0 {
  %3 = load i8, ptr %0, align 1
  %.not = icmp sgt i8 %3, -1
  br i1 %.not, label %27, label %4

4:                                                ; preds = %2
  %5 = icmp sgt i32 %1, 3
  br i1 %5, label %6, label %20

6:                                                ; preds = %4
  %7 = getelementptr inbounds nuw i8, ptr %0, i64 1
  %8 = load i8, ptr %7, align 1
  %9 = add i8 %8, -48
  %or.cond = icmp ult i8 %9, 10
  br i1 %or.cond, label %10, label %.thread

10:                                               ; preds = %6
  switch i8 %3, label %11 [
    i8 -128, label %19
    i8 -1, label %19
  ]

11:                                               ; preds = %10
  %12 = getelementptr inbounds nuw i8, ptr %0, i64 2
  %13 = load i8, ptr %12, align 1
  %14 = add i8 %13, 1
  %or.cond29 = icmp ult i8 %14, -126
  br i1 %or.cond29, label %19, label %15

15:                                               ; preds = %11
  %16 = getelementptr inbounds nuw i8, ptr %0, i64 3
  %17 = load i8, ptr %16, align 1
  %18 = add i8 %17, -48
  %or.cond30 = icmp ult i8 %18, 10
  br i1 %or.cond30, label %27, label %19

19:                                               ; preds = %10, %10, %15, %11
  br label %27

20:                                               ; preds = %4
  %21 = icmp sgt i32 %1, 1
  br i1 %21, label %.thread, label %27

.thread:                                          ; preds = %6, %20
  switch i8 %3, label %22 [
    i8 -1, label %27
    i8 -128, label %27
  ]

22:                                               ; preds = %.thread
  %23 = getelementptr inbounds nuw i8, ptr %0, i64 1
  %24 = load i8, ptr %23, align 1
  %25 = add i8 %24, -64
  %or.cond32 = icmp ult i8 %25, 63
  br i1 %or.cond32, label %27, label %26

26:                                               ; preds = %22
  %or.cond33 = icmp sgt i8 %24, -2
  %spec.select = select i1 %or.cond33, i32 -1, i32 2
  br label %27

27:                                               ; preds = %.thread, %.thread, %26, %20, %22, %15, %2, %19
  %.0 = phi i32 [ -1, %19 ], [ 1, %2 ], [ 4, %15 ], [ 2, %22 ], [ -1, %.thread ], [ -1, %20 ], [ %spec.select, %26 ], [ -1, %.thread ]
  ret i32 %.0
}